; Function Attrs: mustprogress nounwind uwtable
define dso_local void @_ZN4node4quic7Session18HandshakeConfirmedEv(ptr nocapture noundef nonnull readonly align 8 dereferenceable(2616) %this) local_unnamed_addr #5 align 2 {
entry:
  %ptr_.i = getelementptr inbounds i8, ptr %this, i64 128
  %0 = load ptr, ptr %ptr_.i, align 8
  %handshake_confirmed = getelementptr inbounds i8, ptr %0, i64 10
  %1 = load i8, ptr %handshake_confirmed, align 2
  %tobool.not = icmp eq i8 %1, 0
  br i1 %tobool.not, label %if.end, label %return

if.end:                                           ; preds = %entry
  store i8 1, ptr %handshake_confirmed, align 2
  %ptr_.i2 = getelementptr inbounds i8, ptr %this, i64 88
  %2 = load ptr, ptr %ptr_.i2, align 8
  %call.i = tail call i64 @uv_hrtime() #28
  %memptr.offset.i = getelementptr inbounds i8, ptr %2, i64 32
  store i64 %call.i, ptr %memptr.offset.i, align 8
  br label %return

return:                                           ; preds = %entry, %if.end
  ret void
}